target datalayout = "e-m:e-p270:32:32-p271:32:32-p272:64:64-i64:64-i128:128-f80:128-n8:16:32:64-S128"
target triple = "x86_64-pc-linux-gnu"

%struct.FunctionCallInfoBaseData = type { ptr, ptr, ptr, i32, i8, i16, [0 x %struct.NullableDatum] }
%struct.NullableDatum = type { i64, i8 }
%union.anon.1 = type { i32 }

@.str.7 = private unnamed_addr constant [7 x i8] c"cash.c\00", align 1
@.str.25 = private unnamed_addr constant [19 x i8] c"money out of range\00", align 1
@__func__.cash_mul_float8 = private unnamed_addr constant [16 x i8] c"cash_mul_float8\00", align 1

; Function Attrs: inlinehint nounwind uwtable
define internal i64 @Int64GetDatum(i64 noundef %0) #2 {
  %2 = alloca i64, align 8
  store i64 %0, ptr %2, align 8
  %3 = load i64, ptr %2, align 8
  ret i64 %3
}

; Function Attrs: inlinehint nounwind uwtable
define internal double @float8_mul(double noundef %0, double noundef %1) #2 {
  %3 = alloca double, align 8
  %4 = alloca double, align 8
  %5 = alloca double, align 8
  store double %0, ptr %3, align 8
  store double %1, ptr %4, align 8
  call void @llvm.lifetime.start.p0(i64 8, ptr %5) #11
  %6 = load double, ptr %3, align 8
  %7 = load double, ptr %4, align 8
  %8 = fmul double %6, %7
  store double %8, ptr %5, align 8
  %9 = load double, ptr %5, align 8
  %10 = call i1 @llvm.is.fpclass.f64(double %9, i32 516)
  %11 = zext i1 %10 to i32
  %12 = icmp ne i32 %11, 0
  %13 = zext i1 %12 to i32
  %14 = sext i32 %13 to i64
  %15 = call i64 @llvm.expect.i64(i64 %14, i64 0)
  %16 = icmp ne i64 %15, 0
  br i1 %16, label %17, label %24

17:                                               ; preds = %2
  %18 = load double, ptr %3, align 8
  %19 = call i1 @llvm.is.fpclass.f64(double %18, i32 516)
  br i1 %19, label %24, label %20

20:                                               ; preds = %17
  %21 = load double, ptr %4, align 8
  %22 = call i1 @llvm.is.fpclass.f64(double %21, i32 516)
  br i1 %22, label %24, label %23

23:                                               ; preds = %20
  call void @float_overflow_error() #15
  unreachable

24:                                               ; preds = %20, %17, %2
  %25 = load double, ptr %5, align 8
  %26 = fcmp oeq double %25, 0.000000e+00
  %27 = zext i1 %26 to i32
  %28 = icmp ne i32 %27, 0
  %29 = zext i1 %28 to i32
  %30 = sext i32 %29 to i64
  %31 = call i64 @llvm.expect.i64(i64 %30, i64 0)
  %32 = icmp ne i64 %31, 0
  br i1 %32, label %33, label %40

33:                                               ; preds = %24
  %34 = load double, ptr %3, align 8
  %35 = fcmp une double %34, 0.000000e+00
  br i1 %35, label %36, label %40

36:                                               ; preds = %33
  %37 = load double, ptr %4, align 8
  %38 = fcmp une double %37, 0.000000e+00
  br i1 %38, label %39, label %40

39:                                               ; preds = %36
  call void @float_underflow_error() #15
  unreachable

40:                                               ; preds = %36, %33, %24
  %41 = load double, ptr %5, align 8
  call void @llvm.lifetime.end.p0(i64 8, ptr %5) #11
  ret double %41
}

; Function Attrs: inlinehint nounwind uwtable
define internal i64 @DatumGetInt64(i64 noundef %0) #2 {
  %2 = alloca i64, align 8
  store i64 %0, ptr %2, align 8
  %3 = load i64, ptr %2, align 8
  ret i64 %3
}

; Function Attrs: inlinehint nounwind uwtable
define internal i32 @DatumGetInt32(i64 noundef %0) #2 {
  %2 = alloca i64, align 8
  store i64 %0, ptr %2, align 8
  %3 = load i64, ptr %2, align 8
  %4 = trunc i64 %3 to i32
  ret i32 %4
}

; Function Attrs: inlinehint nounwind uwtable
define internal i64 @CashGetDatum(i64 noundef %0) #2 {
  %2 = alloca i64, align 8
  store i64 %0, ptr %2, align 8
  %3 = load i64, ptr %2, align 8
  %4 = call i64 @Int64GetDatum(i64 noundef %3)
  ret i64 %4
}

; Function Attrs: inlinehint nounwind uwtable
define internal i64 @cash_mul_float8(i64 noundef %0, double noundef %1) #2 {
  %3 = alloca i64, align 8
  %4 = alloca double, align 8
  %5 = alloca double, align 8
  store i64 %0, ptr %3, align 8
  store double %1, ptr %4, align 8
  call void @llvm.lifetime.start.p0(i64 8, ptr %5) #11
  %6 = load i64, ptr %3, align 8
  %7 = sitofp i64 %6 to double
  %8 = load double, ptr %4, align 8
  %9 = call double @float8_mul(double noundef %7, double noundef %8)
  %10 = call double @llvm.rint.f64(double %9)
  store double %10, ptr %5, align 8
  %11 = load double, ptr %5, align 8
  %12 = call i1 @llvm.is.fpclass.f64(double %11, i32 3)
  br i1 %12, label %22, label %13

13:                                               ; preds = %2
  %14 = load double, ptr %5, align 8
  %15 = fcmp oge double %14, 0xC3E0000000000000
  br i1 %15, label %16, label %19

16:                                               ; preds = %13
  %17 = load double, ptr %5, align 8
  %18 = fcmp olt double %17, 0x43E0000000000000
  br label %19

19:                                               ; preds = %16, %13
  %20 = phi i1 [ false, %13 ], [ %18, %16 ]
  %21 = xor i1 %20, true
  br label %22

22:                                               ; preds = %19, %2
  %23 = phi i1 [ true, %2 ], [ %21, %19 ]
  %24 = zext i1 %23 to i32
  %25 = icmp ne i32 %24, 0
  %26 = zext i1 %25 to i32
  %27 = sext i32 %26 to i64
  %28 = call i64 @llvm.expect.i64(i64 %27, i64 0)
  %29 = icmp ne i64 %28, 0
  br i1 %29, label %30, label %42

30:                                               ; preds = %22
  br label %31

31:                                               ; preds = %30
  br i1 true, label %32, label %34

32:                                               ; preds = %31
  %33 = call zeroext i1 @errstart_cold(i32 noundef 21, ptr noundef null) #14
  br i1 %33, label %36, label %39

34:                                               ; preds = %31
  %35 = call zeroext i1 @errstart(i32 noundef 21, ptr noundef null)
  br i1 %35, label %36, label %39

36:                                               ; preds = %34, %32
  %37 = call i32 @errcode(i32 noundef 50331778)
  %38 = call i32 (ptr, ...) @errmsg(ptr noundef @.str.25)
  call void @errfinish(ptr noundef @.str.7, i32 noundef 124, ptr noundef @__func__.cash_mul_float8)
  br label %39

39:                                               ; preds = %36, %34, %32
  unreachable

40:                                               ; No predecessors!
  br label %41

41:                                               ; preds = %40
  br label %42

42:                                               ; preds = %41, %22
  %43 = load double, ptr %5, align 8
  %44 = fptosi double %43 to i64
  call void @llvm.lifetime.end.p0(i64 8, ptr %5) #11
  ret i64 %44
}

; Function Attrs: inlinehint nounwind uwtable
define internal i64 @DatumGetCash(i64 noundef %0) #2 {
  %2 = alloca i64, align 8
  store i64 %0, ptr %2, align 8
  %3 = load i64, ptr %2, align 8
  %4 = call i64 @DatumGetInt64(i64 noundef %3)
  ret i64 %4
}

; Function Attrs: inlinehint nounwind uwtable
define internal float @DatumGetFloat4(i64 noundef %0) #2 {
  %2 = alloca i64, align 8
  %3 = alloca %union.anon.1, align 4
  store i64 %0, ptr %2, align 8
  call void @llvm.lifetime.start.p0(i64 4, ptr %3) #11
  %4 = load i64, ptr %2, align 8
  %5 = call i32 @DatumGetInt32(i64 noundef %4)
  store i32 %5, ptr %3, align 4
  %6 = load float, ptr %3, align 4
  call void @llvm.lifetime.end.p0(i64 4, ptr %3) #11
  ret float %6
}

; Function Attrs: nounwind uwtable
define dso_local i64 @flt4_mul_cash(ptr noundef %0) #0 {
  %2 = alloca ptr, align 8
  %3 = alloca float, align 4
  %4 = alloca i64, align 8
  store ptr %0, ptr %2, align 8
  call void @llvm.lifetime.start.p0(i64 4, ptr %3) #11
  %5 = load ptr, ptr %2, align 8
  %6 = getelementptr inbounds nuw %struct.FunctionCallInfoBaseData, ptr %5, i32 0, i32 6
  %7 = getelementptr inbounds [0 x %struct.NullableDatum], ptr %6, i64 0, i64 0
  %8 = getelementptr inbounds nuw %struct.NullableDatum, ptr %7, i32 0, i32 0
  %9 = load i64, ptr %8, align 8
  %10 = call float @DatumGetFloat4(i64 noundef %9)
  store float %10, ptr %3, align 4
  call void @llvm.lifetime.start.p0(i64 8, ptr %4) #11
  %11 = load ptr, ptr %2, align 8
  %12 = getelementptr inbounds nuw %struct.FunctionCallInfoBaseData, ptr %11, i32 0, i32 6
  %13 = getelementptr inbounds [0 x %struct.NullableDatum], ptr %12, i64 0, i64 1
  %14 = getelementptr inbounds nuw %struct.NullableDatum, ptr %13, i32 0, i32 0
  %15 = load i64, ptr %14, align 8
  %16 = call i64 @DatumGetCash(i64 noundef %15)
  store i64 %16, ptr %4, align 8
  %17 = load i64, ptr %4, align 8
  %18 = load float, ptr %3, align 4
  %19 = fpext float %18 to double
  %20 = call i64 @cash_mul_float8(i64 noundef %17, double noundef %19)
  %21 = call i64 @CashGetDatum(i64 noundef %20)
  call void @llvm.lifetime.end.p0(i64 8, ptr %4) #11
  call void @llvm.lifetime.end.p0(i64 4, ptr %3) #11
  ret i64 %21
}